	.file	"quickSort.c"
	.text
	.globl	swap
	.type	swap, @function
swap:
.LFB0:
	.cfi_startproc
	endbr64
	pushq	%rbp
	.cfi_def_cfa_offset 16
	.cfi_offset 6, -16
	movq	%rsp, %rbp
	.cfi_def_cfa_register 6
	movq	%rdi, -24(%rbp)
	movq	%rsi, -32(%rbp)
	movq	-24(%rbp), %rax
	movl	(%rax), %eax
	movl	%eax, -4(%rbp)
	movq	-32(%rbp), %rax
	movl	(%rax), %edx
	movq	-24(%rbp), %rax
	movl	%edx, (%rax)
	movq	-32(%rbp), %rax
	movl	-4(%rbp), %edx
	movl	%edx, (%rax)
	nop
	popq	%rbp
	.cfi_def_cfa 7, 8
	ret
	.cfi_endproc
.LFE0:
	.size	swap, .-swap
	.globl	partitation
	.type	partitation, @function
partitation:
.LFB1:
	.cfi_startproc
	endbr64
	pushq	%rbp
	.cfi_def_cfa_offset 16
	.cfi_offset 6, -16
	movq	%rsp, %rbp
	.cfi_def_cfa_register 6
	subq	$32, %rsp
	movl	%edi, -20(%rbp)
	movl	%esi, -24(%rbp)
	movq	%rdx, -32(%rbp)
	movl	-24(%rbp), %eax
	cltq
	leaq	0(,%rax,4), %rdx
	movq	-32(%rbp), %rax
	addq	%rdx, %rax
	movl	(%rax), %eax
	movl	%eax, -4(%rbp)
	movl	-20(%rbp), %eax
	subl	$1, %eax
	movl	%eax, -12(%rbp)
	movl	-20(%rbp), %eax
	movl	%eax, -8(%rbp)
	jmp	.L3
.L5:
	movl	-8(%rbp), %eax
	cltq
	leaq	0(,%rax,4), %rdx
	movq	-32(%rbp), %rax
	addq	%rdx, %rax
	movl	(%rax), %eax
	cmpl	%eax, -4(%rbp)
	jle	.L4
	addl	$1, -12(%rbp)
	movl	-8(%rbp), %eax
	cltq
	leaq	0(,%rax,4), %rdx
	movq	-32(%rbp), %rax
	addq	%rax, %rdx
	movl	-12(%rbp), %eax
	cltq
	leaq	0(,%rax,4), %rcx
	movq	-32(%rbp), %rax
	addq	%rcx, %rax
	movq	%rdx, %rsi
	movq	%rax, %rdi
	call	swap
.L4:
	addl	$1, -8(%rbp)
.L3:
	movl	-8(%rbp), %eax
	cmpl	-24(%rbp), %eax
	jl	.L5
	movl	-24(%rbp), %eax
	cltq
	leaq	0(,%rax,4), %rdx
	movq	-32(%rbp), %rax
	addq	%rax, %rdx
	movl	-12(%rbp), %eax
	cltq
	addq	$1, %rax
	leaq	0(,%rax,4), %rcx
	movq	-32(%rbp), %rax
	addq	%rcx, %rax
	movq	%rdx, %rsi
	movq	%rax, %rdi
	call	swap
	movl	-12(%rbp), %eax
	addl	$1, %eax
	leave
	.cfi_def_cfa 7, 8
	ret
	.cfi_endproc
.LFE1:
	.size	partitation, .-partitation
	.globl	quickSort
	.type	quickSort, @function
quickSort:
.LFB2:
	.cfi_startproc
	endbr64
	pushq	%rbp
	.cfi_def_cfa_offset 16
	.cfi_offset 6, -16
	movq	%rsp, %rbp
	.cfi_def_cfa_register 6
	subq	$32, %rsp
	movq	%rdi, -24(%rbp)
	movl	%esi, -28(%rbp)
	movl	%edx, -32(%rbp)
	movl	-28(%rbp), %eax
	cmpl	-32(%rbp), %eax
	jge	.L9
	movq	-24(%rbp), %rdx
	movl	-32(%rbp), %ecx
	movl	-28(%rbp), %eax
	movl	%ecx, %esi
	movl	%eax, %edi
	call	partitation
	movl	%eax, -4(%rbp)
	movl	-4(%rbp), %eax
	leal	1(%rax), %ecx
	movl	-32(%rbp), %edx
	movq	-24(%rbp), %rax
	movl	%ecx, %esi
	movq	%rax, %rdi
	call	quickSort
	movl	-4(%rbp), %eax
	leal	-1(%rax), %edx
	movl	-28(%rbp), %ecx
	movq	-24(%rbp), %rax
	movl	%ecx, %esi
	movq	%rax, %rdi
	call	quickSort
.L9:
	nop
	leave
	.cfi_def_cfa 7, 8
	ret
	.cfi_endproc
.LFE2:
	.size	quickSort, .-quickSort
	.ident	"GCC: (Ubuntu 13.3.0-6ubuntu2~24.04) 13.3.0"
	.section	.note.GNU-stack,"",@progbits
	.section	.note.gnu.property,"a"
	.align 8
	.long	1f - 0f
	.long	4f - 1f
	.long	5
0:
	.string	"GNU"
1:
	.align 8
	.long	0xc0000002
	.long	3f - 2f
2:
	.long	0x3
3:
	.align 8
4:
